target datalayout = "e-m:e-p270:32:32-p271:32:32-p272:64:64-i64:64-i128:128-f80:128-n8:16:32:64-S128"
target triple = "x86_64-pc-linux-gnu"

%struct.tm = type { i32, i32, i32, i32, i32, i32, i32, i32, i32, i64, ptr }

@.str.129 = private unnamed_addr constant [36 x i8] c"Couldn't get localtime from end %ld\00", align 1
@.str.130 = private unnamed_addr constant [41 x i8] c"Couldn't get localtime from user end %ld\00", align 1
@.str.131 = private unnamed_addr constant [38 x i8] c"Couldn't get localtime from start %ld\00", align 1
@.str.132 = private unnamed_addr constant [43 x i8] c"Couldn't get localtime from user start %ld\00", align 1

; Function Attrs: nounwind uwtable
define dso_local i32 @slurmdb_report_set_start_end_time(ptr noundef %0, ptr noundef %1) #0 {
  %3 = alloca i32, align 4
  %4 = alloca ptr, align 8
  %5 = alloca ptr, align 8
  %6 = alloca i64, align 8
  %7 = alloca i64, align 8
  %8 = alloca %struct.tm, align 8
  %9 = alloca %struct.tm, align 8
  %10 = alloca i32, align 4
  %11 = alloca i32, align 4
  %12 = alloca i32, align 4
  store ptr %0, ptr %4, align 8
  store ptr %1, ptr %5, align 8
  call void @llvm.lifetime.start.p0(i64 8, ptr %6) #10
  %13 = call i64 @time(ptr noundef null) #10
  store i64 %13, ptr %6, align 8
  call void @llvm.lifetime.start.p0(i64 8, ptr %7) #10
  call void @llvm.lifetime.start.p0(i64 56, ptr %8) #10
  call void @llvm.lifetime.start.p0(i64 56, ptr %9) #10
  call void @llvm.lifetime.start.p0(i64 4, ptr %10) #10
  %14 = load ptr, ptr %4, align 8
  %15 = load i64, ptr %14, align 8
  %16 = trunc i64 %15 to i32
  store i32 %16, ptr %10, align 4
  call void @llvm.lifetime.start.p0(i64 4, ptr %11) #10
  %17 = load ptr, ptr %5, align 8
  %18 = load i64, ptr %17, align 8
  %19 = trunc i64 %18 to i32
  store i32 %19, ptr %11, align 4
  %20 = load i32, ptr %11, align 4
  %21 = icmp ne i32 %20, 0
  br i1 %21, label %30, label %22

22:                                               ; preds = %2
  %23 = call ptr @localtime_r(ptr noundef %6, ptr noundef %9) #10
  %24 = icmp ne ptr %23, null
  br i1 %24, label %28, label %25

25:                                               ; preds = %22
  %26 = load i64, ptr %6, align 8
  %27 = call i32 (ptr, ...) @error(ptr noundef @.str.129, i64 noundef %26)
  store i32 -1, ptr %3, align 4
  store i32 1, ptr %12, align 4
  br label %99

28:                                               ; preds = %22
  %29 = getelementptr inbounds nuw %struct.tm, ptr %9, i32 0, i32 2
  store i32 0, ptr %29, align 8
  br label %39

30:                                               ; preds = %2
  %31 = load i32, ptr %11, align 4
  %32 = sext i32 %31 to i64
  store i64 %32, ptr %7, align 8
  %33 = call ptr @localtime_r(ptr noundef %7, ptr noundef %9) #10
  %34 = icmp ne ptr %33, null
  br i1 %34, label %38, label %35

35:                                               ; preds = %30
  %36 = load i64, ptr %6, align 8
  %37 = call i32 (ptr, ...) @error(ptr noundef @.str.130, i64 noundef %36)
  store i32 -1, ptr %3, align 4
  store i32 1, ptr %12, align 4
  br label %99

38:                                               ; preds = %30
  br label %39

39:                                               ; preds = %38, %28
  %40 = getelementptr inbounds nuw %struct.tm, ptr %9, i32 0, i32 0
  %41 = load i32, ptr %40, align 8
  %42 = icmp ne i32 %41, 0
  br i1 %42, label %43, label %47

43:                                               ; preds = %39
  %44 = getelementptr inbounds nuw %struct.tm, ptr %9, i32 0, i32 1
  %45 = load i32, ptr %44, align 4
  %46 = add nsw i32 %45, 1
  store i32 %46, ptr %44, align 4
  br label %47

47:                                               ; preds = %43, %39
  %48 = getelementptr inbounds nuw %struct.tm, ptr %9, i32 0, i32 1
  %49 = load i32, ptr %48, align 4
  %50 = icmp ne i32 %49, 0
  br i1 %50, label %51, label %55

51:                                               ; preds = %47
  %52 = getelementptr inbounds nuw %struct.tm, ptr %9, i32 0, i32 2
  %53 = load i32, ptr %52, align 8
  %54 = add nsw i32 %53, 1
  store i32 %54, ptr %52, align 8
  br label %55

55:                                               ; preds = %51, %47
  %56 = getelementptr inbounds nuw %struct.tm, ptr %9, i32 0, i32 0
  store i32 0, ptr %56, align 8
  %57 = getelementptr inbounds nuw %struct.tm, ptr %9, i32 0, i32 1
  store i32 0, ptr %57, align 4
  %58 = call i64 @slurm_mktime(ptr noundef %9)
  %59 = load ptr, ptr %5, align 8
  store i64 %58, ptr %59, align 8
  %60 = load i32, ptr %10, align 4
  %61 = icmp ne i32 %60, 0
  br i1 %61, label %73, label %62

62:                                               ; preds = %55
  %63 = call ptr @localtime_r(ptr noundef %6, ptr noundef %8) #10
  %64 = icmp ne ptr %63, null
  br i1 %64, label %68, label %65

65:                                               ; preds = %62
  %66 = load i64, ptr %6, align 8
  %67 = call i32 (ptr, ...) @error(ptr noundef @.str.131, i64 noundef %66)
  store i32 -1, ptr %3, align 4
  store i32 1, ptr %12, align 4
  br label %99

68:                                               ; preds = %62
  %69 = getelementptr inbounds nuw %struct.tm, ptr %8, i32 0, i32 2
  store i32 0, ptr %69, align 8
  %70 = getelementptr inbounds nuw %struct.tm, ptr %8, i32 0, i32 3
  %71 = load i32, ptr %70, align 4
  %72 = add nsw i32 %71, -1
  store i32 %72, ptr %70, align 4
  br label %82

73:                                               ; preds = %55
  %74 = load i32, ptr %10, align 4
  %75 = sext i32 %74 to i64
  store i64 %75, ptr %7, align 8
  %76 = call ptr @localtime_r(ptr noundef %7, ptr noundef %8) #10
  %77 = icmp ne ptr %76, null
  br i1 %77, label %81, label %78

78:                                               ; preds = %73
  %79 = load i64, ptr %6, align 8
  %80 = call i32 (ptr, ...) @error(ptr noundef @.str.132, i64 noundef %79)
  store i32 -1, ptr %3, align 4
  store i32 1, ptr %12, align 4
  br label %99

81:                                               ; preds = %73
  br label %82

82:                                               ; preds = %81, %68
  %83 = getelementptr inbounds nuw %struct.tm, ptr %8, i32 0, i32 0
  store i32 0, ptr %83, align 8
  %84 = getelementptr inbounds nuw %struct.tm, ptr %8, i32 0, i32 1
  store i32 0, ptr %84, align 4
  %85 = call i64 @slurm_mktime(ptr noundef %8)
  %86 = load ptr, ptr %4, align 8
  store i64 %85, ptr %86, align 8
  %87 = load ptr, ptr %5, align 8
  %88 = load i64, ptr %87, align 8
  %89 = load ptr, ptr %4, align 8
  %90 = load i64, ptr %89, align 8
  %91 = sub nsw i64 %88, %90
  %92 = icmp slt i64 %91, 3600
  br i1 %92, label %93, label %98

93:                                               ; preds = %82
  %94 = load ptr, ptr %4, align 8
  %95 = load i64, ptr %94, align 8
  %96 = add nsw i64 %95, 3600
  %97 = load ptr, ptr %5, align 8
  store i64 %96, ptr %97, align 8
  br label %98

98:                                               ; preds = %93, %82
  store i32 0, ptr %3, align 4
  store i32 1, ptr %12, align 4
  br label %99

99:                                               ; preds = %98, %78, %65, %35, %25
  call void @llvm.lifetime.end.p0(i64 4, ptr %11) #10
  call void @llvm.lifetime.end.p0(i64 4, ptr %10) #10
  call void @llvm.lifetime.end.p0(i64 56, ptr %9) #10
  call void @llvm.lifetime.end.p0(i64 56, ptr %8) #10
  call void @llvm.lifetime.end.p0(i64 8, ptr %7) #10
  call void @llvm.lifetime.end.p0(i64 8, ptr %6) #10
  %100 = load i32, ptr %3, align 4
  ret i32 %100
}