; Function Attrs: nounwind uwtable
define dso_local range(i32 -1, 1) i32 @slurmdb_report_set_start_end_time(ptr noundef captures(none) %0, ptr noundef captures(none) %1) local_unnamed_addr #0 {
  %3 = alloca i64, align 8
  %4 = alloca i64, align 8
  %5 = alloca %struct.tm, align 8
  %6 = alloca %struct.tm, align 8
  call void @llvm.lifetime.start.p0(i64 8, ptr nonnull %3) #19
  %7 = tail call i64 @time(ptr noundef null) #19
  store i64 %7, ptr %3, align 8
  call void @llvm.lifetime.start.p0(i64 8, ptr nonnull %4) #19
  call void @llvm.lifetime.start.p0(i64 56, ptr nonnull %5) #19
  call void @llvm.lifetime.start.p0(i64 56, ptr nonnull %6) #19
  %8 = load i64, ptr %0, align 8
  %9 = load i64, ptr %1, align 8
  %10 = and i64 %9, 4294967295
  %.not = icmp eq i64 %10, 0
  br i1 %.not, label %11, label %18

11:                                               ; preds = %2
  %12 = call ptr @localtime_r(ptr noundef nonnull %3, ptr noundef nonnull %6) #19
  %.not14 = icmp eq ptr %12, null
  br i1 %.not14, label %13, label %16

13:                                               ; preds = %11
  %14 = load i64, ptr %3, align 8
  %15 = call i32 (ptr, ...) @error(ptr noundef nonnull @.str.129, i64 noundef %14) #19
  br label %57

16:                                               ; preds = %11
  %17 = getelementptr inbounds nuw i8, ptr %6, i64 8
  store i32 0, ptr %17, align 8
  br label %._crit_edge

18:                                               ; preds = %2
  %sext = shl i64 %9, 32
  %19 = ashr exact i64 %sext, 32
  store i64 %19, ptr %4, align 8
  %20 = call ptr @localtime_r(ptr noundef nonnull %4, ptr noundef nonnull %6) #19
  %.not15 = icmp eq ptr %20, null
  br i1 %.not15, label %21, label %._crit_edge

21:                                               ; preds = %18
  %22 = load i64, ptr %3, align 8
  %23 = call i32 (ptr, ...) @error(ptr noundef nonnull @.str.130, i64 noundef %22) #19
  br label %57

._crit_edge:                                      ; preds = %18, %16
  %24 = load i32, ptr %6, align 8
  %.not16 = icmp ne i32 %24, 0
  %.phi.trans.insert = getelementptr inbounds nuw i8, ptr %6, i64 4
  %.pre = load i32, ptr %.phi.trans.insert, align 4
  %.neg = sext i1 %.not16 to i32
  %25 = getelementptr inbounds nuw i8, ptr %6, i64 4
  %.not17 = icmp eq i32 %.pre, %.neg
  br i1 %.not17, label %30, label %26

26:                                               ; preds = %._crit_edge
  %27 = getelementptr inbounds nuw i8, ptr %6, i64 8
  %28 = load i32, ptr %27, align 8
  %29 = add nsw i32 %28, 1
  store i32 %29, ptr %27, align 8
  br label %30

30:                                               ; preds = %26, %._crit_edge
  store i32 0, ptr %6, align 8
  store i32 0, ptr %25, align 4
  %31 = call i64 @slurm_mktime(ptr noundef nonnull %6) #19
  store i64 %31, ptr %1, align 8
  %32 = and i64 %8, 4294967295
  %.not18 = icmp eq i64 %32, 0
  br i1 %.not18, label %33, label %43

33:                                               ; preds = %30
  %34 = call ptr @localtime_r(ptr noundef nonnull %3, ptr noundef nonnull %5) #19
  %.not19 = icmp eq ptr %34, null
  br i1 %.not19, label %35, label %38

35:                                               ; preds = %33
  %36 = load i64, ptr %3, align 8
  %37 = call i32 (ptr, ...) @error(ptr noundef nonnull @.str.131, i64 noundef %36) #19
  br label %57

38:                                               ; preds = %33
  %39 = getelementptr inbounds nuw i8, ptr %5, i64 8
  store i32 0, ptr %39, align 8
  %40 = getelementptr inbounds nuw i8, ptr %5, i64 12
  %41 = load i32, ptr %40, align 4
  %42 = add nsw i32 %41, -1
  store i32 %42, ptr %40, align 4
  br label %49

43:                                               ; preds = %30
  %sext20 = shl i64 %8, 32
  %44 = ashr exact i64 %sext20, 32
  store i64 %44, ptr %4, align 8
  %45 = call ptr @localtime_r(ptr noundef nonnull %4, ptr noundef nonnull %5) #19
  %.not21 = icmp eq ptr %45, null
  br i1 %.not21, label %46, label %49

46:                                               ; preds = %43
  %47 = load i64, ptr %3, align 8
  %48 = call i32 (ptr, ...) @error(ptr noundef nonnull @.str.132, i64 noundef %47) #19
  br label %57

49:                                               ; preds = %43, %38
  store i32 0, ptr %5, align 8
  %50 = getelementptr inbounds nuw i8, ptr %5, i64 4
  store i32 0, ptr %50, align 4
  %51 = call i64 @slurm_mktime(ptr noundef nonnull %5) #19
  store i64 %51, ptr %0, align 8
  %52 = load i64, ptr %1, align 8
  %53 = sub nsw i64 %52, %51
  %54 = icmp slt i64 %53, 3600
  br i1 %54, label %55, label %57

55:                                               ; preds = %49
  %56 = add nsw i64 %51, 3600
  store i64 %56, ptr %1, align 8
  br label %57

57:                                               ; preds = %49, %55, %46, %35, %21, %13
  %.0 = phi i32 [ -1, %46 ], [ -1, %35 ], [ -1, %21 ], [ -1, %13 ], [ 0, %55 ], [ 0, %49 ]
  call void @llvm.lifetime.end.p0(i64 56, ptr nonnull %6) #19
  call void @llvm.lifetime.end.p0(i64 56, ptr nonnull %5) #19
  call void @llvm.lifetime.end.p0(i64 8, ptr nonnull %4) #19
  call void @llvm.lifetime.end.p0(i64 8, ptr nonnull %3) #19
  ret i32 %.0
}